; Function Attrs: mustprogress uwtable
define void @_ZN32pxrInternal_v0_24__pxrReserved__14WorkDispatcher6CancelEv(ptr noundef nonnull align 8 dereferenceable(345) %0) local_unnamed_addr #0 align 2 personality ptr @__gxx_personality_v0 {
  %2 = getelementptr inbounds i8, ptr %0, i64 144
  %3 = getelementptr inbounds i8, ptr %0, i64 159
  %4 = load atomic i8, ptr %3 monotonic, align 1
  %5 = icmp eq i8 %4, -1
  %6 = getelementptr inbounds i8, ptr %0, i64 160
  %7 = load ptr, ptr %6, align 8
  %.0.i.i.i = select i1 %5, ptr %7, ptr %2
  %8 = getelementptr inbounds nuw i8, ptr %.0.i.i.i, i64 15
  %9 = load atomic i8, ptr %8 monotonic, align 1
  %10 = icmp eq i8 %9, -1
  %11 = getelementptr inbounds nuw i8, ptr %.0.i.i.i, i64 16
  %12 = load ptr, ptr %11, align 8
  %.0.i.i1.i = select i1 %10, ptr %12, ptr %.0.i.i.i
  %13 = tail call noundef zeroext i1 @_ZN3tbb6detail2r122cancel_group_executionERNS0_2d118task_group_contextE(ptr noundef nonnull align 8 dereferenceable(128) %.0.i.i1.i)
  ret void
}